target datalayout = "e-m:e-p270:32:32-p271:32:32-p272:64:64-i64:64-i128:128-f80:128-n8:16:32:64-S128"
target triple = "x86_64-pc-linux-gnu"

%"struct.faiss::VectorDistance" = type { i64, float }
%"struct.faiss::(anonymous namespace)::ExtraDistanceComputer" = type { %"struct.faiss::FlatCodesDistanceComputer", %"struct.faiss::VectorDistance", i64, ptr, ptr }
%"struct.faiss::FlatCodesDistanceComputer" = type { %"struct.faiss::DistanceComputer", ptr, i64 }
%"struct.faiss::DistanceComputer" = type { ptr }

; Function Attrs: mustprogress uwtable
define linkonce_odr noundef float @_ZNK5faiss14VectorDistanceILNS_10MetricTypeE1EEclEPKfS4_(ptr noundef nonnull align 8 dereferenceable(16) %0, ptr noundef %1, ptr noundef %2) #0 comdat align 2 {
  %4 = alloca ptr, align 8
  %5 = alloca ptr, align 8
  %6 = alloca ptr, align 8
  store ptr %0, ptr %4, align 8
  store ptr %1, ptr %5, align 8
  store ptr %2, ptr %6, align 8
  %7 = load ptr, ptr %4, align 8
  %8 = load ptr, ptr %5, align 8
  %9 = load ptr, ptr %6, align 8
  %10 = getelementptr inbounds %"struct.faiss::VectorDistance", ptr %7, i32 0, i32 0
  %11 = load i64, ptr %10, align 8
  %12 = call noundef float @_ZN5faiss10fvec_L2sqrEPKfS1_m(ptr noundef %8, ptr noundef %9, i64 noundef %11)
  ret float %12
}

; Function Attrs: mustprogress uwtable
define internal noundef float @_ZN5faiss12_GLOBAL__N_121ExtraDistanceComputerINS_14VectorDistanceILNS_10MetricTypeE1EEEE13symmetric_disEll(ptr noundef nonnull align 8 dereferenceable(64) %0, i64 noundef %1, i64 noundef %2) unnamed_addr #0 align 2 {
  %4 = alloca ptr, align 8
  %5 = alloca i64, align 8
  %6 = alloca i64, align 8
  store ptr %0, ptr %4, align 8
  store i64 %1, ptr %5, align 8
  store i64 %2, ptr %6, align 8
  %7 = load ptr, ptr %4, align 8
  %8 = getelementptr inbounds %"struct.faiss::(anonymous namespace)::ExtraDistanceComputer", ptr %7, i32 0, i32 1
  %9 = getelementptr inbounds %"struct.faiss::(anonymous namespace)::ExtraDistanceComputer", ptr %7, i32 0, i32 4
  %10 = load ptr, ptr %9, align 8
  %11 = load i64, ptr %6, align 8
  %12 = getelementptr inbounds %"struct.faiss::(anonymous namespace)::ExtraDistanceComputer", ptr %7, i32 0, i32 1
  %13 = getelementptr inbounds %"struct.faiss::VectorDistance", ptr %12, i32 0, i32 0
  %14 = load i64, ptr %13, align 8
  %15 = mul i64 %11, %14
  %16 = getelementptr inbounds float, ptr %10, i64 %15
  %17 = getelementptr inbounds %"struct.faiss::(anonymous namespace)::ExtraDistanceComputer", ptr %7, i32 0, i32 4
  %18 = load ptr, ptr %17, align 8
  %19 = load i64, ptr %5, align 8
  %20 = getelementptr inbounds %"struct.faiss::(anonymous namespace)::ExtraDistanceComputer", ptr %7, i32 0, i32 1
  %21 = getelementptr inbounds %"struct.faiss::VectorDistance", ptr %20, i32 0, i32 0
  %22 = load i64, ptr %21, align 8
  %23 = mul i64 %19, %22
  %24 = getelementptr inbounds float, ptr %18, i64 %23
  %25 = call noundef float @_ZNK5faiss14VectorDistanceILNS_10MetricTypeE1EEclEPKfS4_(ptr noundef nonnull align 8 dereferenceable(16) %8, ptr noundef %16, ptr noundef %24)
  ret float %25
}