; Function Attrs: mustprogress uwtable
define internal noundef float @_ZN5faiss12_GLOBAL__N_121ExtraDistanceComputerINS_14VectorDistanceILNS_10MetricTypeE1EEEE13symmetric_disEll(ptr nocapture noundef nonnull readonly align 8 dereferenceable(64) %0, i64 noundef %1, i64 noundef %2) unnamed_addr #0 align 2 {
  %4 = getelementptr inbounds i8, ptr %0, i64 24
  %5 = getelementptr inbounds i8, ptr %0, i64 56
  %6 = load ptr, ptr %5, align 8
  %7 = load i64, ptr %4, align 8
  %8 = mul i64 %7, %2
  %9 = getelementptr inbounds float, ptr %6, i64 %8
  %10 = mul i64 %7, %1
  %11 = getelementptr inbounds float, ptr %6, i64 %10
  %12 = tail call noundef float @_ZN5faiss10fvec_L2sqrEPKfS1_m(ptr noundef %9, ptr noundef %11, i64 noundef %7)
  ret float %12
}